; Function Attrs: mustprogress uwtable
define void @_ZN7rocksdb15BlockBasedTable17IndexReaderCommon31EraseFromCacheBeforeDestructionEj(ptr noundef nonnull align 8 captures(none) dereferenceable(48) %0, i32 noundef %1) unnamed_addr #5 align 2 personality ptr @__gxx_personality_v0 {
  %.not = icmp eq i32 %1, 0
  br i1 %.not, label %24, label %3

3:                                                ; preds = %2
  %4 = getelementptr inbounds nuw i8, ptr %0, i64 16
  %5 = getelementptr inbounds nuw i8, ptr %0, i64 32
  %6 = load ptr, ptr %5, align 8, !tbaa !177
  %.not1 = icmp eq ptr %6, null
  br i1 %.not1, label %17, label %7

7:                                                ; preds = %3
  %8 = getelementptr inbounds nuw i8, ptr %0, i64 24
  %9 = load ptr, ptr %8, align 8, !tbaa !178
  %10 = load ptr, ptr %9, align 8, !tbaa !31
  %11 = getelementptr inbounds nuw i8, ptr %10, i64 184
  %12 = load ptr, ptr %11, align 8
  %13 = invoke noundef zeroext i1 %12(ptr noundef nonnull align 8 dereferenceable(80) %9, ptr noundef nonnull %6, i1 noundef zeroext true)
          to label %_ZN7rocksdb13CachableEntryINS_5BlockEE19ResetEraseIfLastRefEv.exit unwind label %14

14:                                               ; preds = %7
  %15 = landingpad { ptr, i32 }
          catch ptr null
  %16 = extractvalue { ptr, i32 } %15, 0
  tail call void @__clang_call_terminate(ptr %16) #18
  unreachable

_ZN7rocksdb13CachableEntryINS_5BlockEE19ResetEraseIfLastRefEv.exit: ; preds = %7
  tail call void @llvm.memset.p0.i64(ptr noundef nonnull align 8 dereferenceable(25) %4, i8 0, i64 25, i1 false)
  br label %24

17:                                               ; preds = %3
  %18 = getelementptr inbounds nuw i8, ptr %0, i64 8
  %19 = load ptr, ptr %18, align 8, !tbaa !61
  %20 = getelementptr inbounds nuw i8, ptr %19, i64 8
  %21 = load ptr, ptr %20, align 8, !tbaa !33
  %22 = getelementptr inbounds nuw i8, ptr %21, i64 600
  %23 = tail call noundef zeroext i1 @_ZNK7rocksdb15BlockBasedTable14EraseFromCacheERKNS_11BlockHandleE(ptr noundef nonnull align 8 dereferenceable(24) %19, ptr noundef nonnull align 8 dereferenceable(16) %22)
  br label %24

24:                                               ; preds = %_ZN7rocksdb13CachableEntryINS_5BlockEE19ResetEraseIfLastRefEv.exit, %17, %2
  ret void
}